; Function Attrs: mustprogress uwtable
define void @_ZN17RtpAnalysisDialog13deleteTabInfoEP10tab_info_t(ptr nocapture nonnull readnone align 8 %0, ptr noundef %1) local_unnamed_addr #0 align 2 {
  %3 = getelementptr inbounds i8, ptr %1, i64 7304
  %4 = load ptr, ptr %3, align 8
  %5 = icmp eq ptr %4, null
  br i1 %5, label %11, label %6

6:                                                ; preds = %2
  %7 = load ptr, ptr %4, align 8
  %.not.i.i.i = icmp eq ptr %7, null
  br i1 %.not.i.i.i, label %_ZN5QListIdED2Ev.exit, label %_ZN17QArrayDataPointerIdE5derefEv.exit.i.i

_ZN17QArrayDataPointerIdE5derefEv.exit.i.i:       ; preds = %6
  %8 = atomicrmw sub ptr %7, i32 1 seq_cst, align 4
  %.not.i.i = icmp eq i32 %8, 1
  br i1 %.not.i.i, label %9, label %_ZN5QListIdED2Ev.exit

9:                                                ; preds = %_ZN17QArrayDataPointerIdE5derefEv.exit.i.i
  %10 = load ptr, ptr %4, align 8
  tail call void @_ZN10QArrayData10deallocateEPS_xx(ptr noundef %10, i64 noundef 8, i64 noundef 8) #19
  br label %_ZN5QListIdED2Ev.exit

_ZN5QListIdED2Ev.exit:                            ; preds = %6, %_ZN17QArrayDataPointerIdE5derefEv.exit.i.i, %9
  tail call void @_ZdlPv(ptr noundef nonnull %4) #22
  br label %11

11:                                               ; preds = %_ZN5QListIdED2Ev.exit, %2
  %12 = getelementptr inbounds i8, ptr %1, i64 7312
  %13 = load ptr, ptr %12, align 8
  %14 = icmp eq ptr %13, null
  br i1 %14, label %20, label %15

15:                                               ; preds = %11
  %16 = load ptr, ptr %13, align 8
  %.not.i.i.i10 = icmp eq ptr %16, null
  br i1 %.not.i.i.i10, label %_ZN5QListIdED2Ev.exit13, label %_ZN17QArrayDataPointerIdE5derefEv.exit.i.i11

_ZN17QArrayDataPointerIdE5derefEv.exit.i.i11:     ; preds = %15
  %17 = atomicrmw sub ptr %16, i32 1 seq_cst, align 4
  %.not.i.i12 = icmp eq i32 %17, 1
  br i1 %.not.i.i12, label %18, label %_ZN5QListIdED2Ev.exit13

18:                                               ; preds = %_ZN17QArrayDataPointerIdE5derefEv.exit.i.i11
  %19 = load ptr, ptr %13, align 8
  tail call void @_ZN10QArrayData10deallocateEPS_xx(ptr noundef %19, i64 noundef 8, i64 noundef 8) #19
  br label %_ZN5QListIdED2Ev.exit13

_ZN5QListIdED2Ev.exit13:                          ; preds = %15, %_ZN17QArrayDataPointerIdE5derefEv.exit.i.i11, %18
  tail call void @_ZdlPv(ptr noundef nonnull %13) #22
  br label %20

20:                                               ; preds = %_ZN5QListIdED2Ev.exit13, %11
  %21 = getelementptr inbounds i8, ptr %1, i64 7320
  %22 = load ptr, ptr %21, align 8
  %23 = icmp eq ptr %22, null
  br i1 %23, label %29, label %24

24:                                               ; preds = %20
  %25 = load ptr, ptr %22, align 8
  %.not.i.i.i14 = icmp eq ptr %25, null
  br i1 %.not.i.i.i14, label %_ZN5QListIdED2Ev.exit17, label %_ZN17QArrayDataPointerIdE5derefEv.exit.i.i15

_ZN17QArrayDataPointerIdE5derefEv.exit.i.i15:     ; preds = %24
  %26 = atomicrmw sub ptr %25, i32 1 seq_cst, align 4
  %.not.i.i16 = icmp eq i32 %26, 1
  br i1 %.not.i.i16, label %27, label %_ZN5QListIdED2Ev.exit17

27:                                               ; preds = %_ZN17QArrayDataPointerIdE5derefEv.exit.i.i15
  %28 = load ptr, ptr %22, align 8
  tail call void @_ZN10QArrayData10deallocateEPS_xx(ptr noundef %28, i64 noundef 8, i64 noundef 8) #19
  br label %_ZN5QListIdED2Ev.exit17

_ZN5QListIdED2Ev.exit17:                          ; preds = %24, %_ZN17QArrayDataPointerIdE5derefEv.exit.i.i15, %27
  tail call void @_ZdlPv(ptr noundef nonnull %22) #22
  br label %29

29:                                               ; preds = %_ZN5QListIdED2Ev.exit17, %20
  %30 = getelementptr inbounds i8, ptr %1, i64 7328
  %31 = load ptr, ptr %30, align 8
  %32 = icmp eq ptr %31, null
  br i1 %32, label %38, label %33

33:                                               ; preds = %29
  %34 = load ptr, ptr %31, align 8
  %.not.i.i.i18 = icmp eq ptr %34, null
  br i1 %.not.i.i.i18, label %_ZN5QListIdED2Ev.exit21, label %_ZN17QArrayDataPointerIdE5derefEv.exit.i.i19

_ZN17QArrayDataPointerIdE5derefEv.exit.i.i19:     ; preds = %33
  %35 = atomicrmw sub ptr %34, i32 1 seq_cst, align 4
  %.not.i.i20 = icmp eq i32 %35, 1
  br i1 %.not.i.i20, label %36, label %_ZN5QListIdED2Ev.exit21

36:                                               ; preds = %_ZN17QArrayDataPointerIdE5derefEv.exit.i.i19
  %37 = load ptr, ptr %31, align 8
  tail call void @_ZN10QArrayData10deallocateEPS_xx(ptr noundef %37, i64 noundef 8, i64 noundef 8) #19
  br label %_ZN5QListIdED2Ev.exit21

_ZN5QListIdED2Ev.exit21:                          ; preds = %33, %_ZN17QArrayDataPointerIdE5derefEv.exit.i.i19, %36
  tail call void @_ZdlPv(ptr noundef nonnull %31) #22
  br label %38

38:                                               ; preds = %_ZN5QListIdED2Ev.exit21, %29
  %39 = getelementptr inbounds i8, ptr %1, i64 7352
  %40 = load ptr, ptr %39, align 8
  %41 = icmp eq ptr %40, null
  br i1 %41, label %47, label %42

42:                                               ; preds = %38
  %43 = load ptr, ptr %40, align 8
  %.not.i.i.i22 = icmp eq ptr %43, null
  br i1 %.not.i.i.i22, label %_ZN7QStringD2Ev.exit, label %_ZN17QArrayDataPointerIDsE5derefEv.exit.i.i

_ZN17QArrayDataPointerIDsE5derefEv.exit.i.i:      ; preds = %42
  %44 = atomicrmw sub ptr %43, i32 1 seq_cst, align 4
  %.not.i.i23 = icmp eq i32 %44, 1
  br i1 %.not.i.i23, label %45, label %_ZN7QStringD2Ev.exit

45:                                               ; preds = %_ZN17QArrayDataPointerIDsE5derefEv.exit.i.i
  %46 = load ptr, ptr %40, align 8
  tail call void @_ZN10QArrayData10deallocateEPS_xx(ptr noundef %46, i64 noundef 2, i64 noundef 8) #19
  br label %_ZN7QStringD2Ev.exit

_ZN7QStringD2Ev.exit:                             ; preds = %42, %_ZN17QArrayDataPointerIDsE5derefEv.exit.i.i, %45
  tail call void @_ZdlPv(ptr noundef nonnull %40) #22
  br label %47

47:                                               ; preds = %_ZN7QStringD2Ev.exit, %38
  tail call void @rtpstream_info_free_data(ptr noundef nonnull %1)
  ret void
}